target datalayout = "e-m:e-p270:32:32-p271:32:32-p272:64:64-i64:64-i128:128-f80:128-n8:16:32:64-S128"
target triple = "x86_64-pc-linux-gnu"

@hf_raknet_timestamp = internal global i32 0, align 4
@hf_raknet_server_address = internal global i32 0, align 4
@hf_raknet_internal_address = internal global i32 0, align 4

; Function Attrs: null_pointer_is_valid sspstrong uwtable
define internal i32 @raknet_dissect_new_incoming_connection(ptr noundef %0, ptr noundef %1, ptr noundef %2, ptr noundef %3) #0 {
  %5 = alloca ptr, align 8
  %6 = alloca ptr, align 8
  %7 = alloca ptr, align 8
  %8 = alloca ptr, align 8
  %9 = alloca i32, align 4
  %10 = alloca i32, align 4
  store ptr %0, ptr %5, align 8
  store ptr %1, ptr %6, align 8
  store ptr %2, ptr %7, align 8
  store ptr %3, ptr %8, align 8
  call void @llvm.lifetime.start.p0(i64 4, ptr %9) #6
  store i32 1, ptr %9, align 4
  call void @llvm.lifetime.start.p0(i64 4, ptr %10) #6
  %11 = load ptr, ptr %7, align 8
  %12 = load i32, ptr @hf_raknet_server_address, align 4
  %13 = load ptr, ptr %6, align 8
  %14 = load ptr, ptr %5, align 8
  call void @raknet_dissect_system_address(ptr noundef %11, i32 noundef %12, ptr noundef %13, ptr noundef %14, ptr noundef %9)
  store i32 0, ptr %10, align 4
  br label %15

15:                                               ; preds = %23, %4
  %16 = load i32, ptr %10, align 4
  %17 = icmp slt i32 %16, 10
  br i1 %17, label %18, label %26

18:                                               ; preds = %15
  %19 = load ptr, ptr %7, align 8
  %20 = load i32, ptr @hf_raknet_internal_address, align 4
  %21 = load ptr, ptr %6, align 8
  %22 = load ptr, ptr %5, align 8
  call void @raknet_dissect_system_address(ptr noundef %19, i32 noundef %20, ptr noundef %21, ptr noundef %22, ptr noundef %9)
  br label %23

23:                                               ; preds = %18
  %24 = load i32, ptr %10, align 4
  %25 = add i32 %24, 1
  store i32 %25, ptr %10, align 4
  br label %15, !llvm.loop !15

26:                                               ; preds = %15
  %27 = load ptr, ptr %7, align 8
  %28 = load i32, ptr @hf_raknet_timestamp, align 4
  %29 = load ptr, ptr %5, align 8
  %30 = load i32, ptr %9, align 4
  %31 = call ptr @proto_tree_add_item(ptr noundef %27, i32 noundef %28, ptr noundef %29, i32 noundef %30, i32 noundef 8, i32 noundef 0)
  %32 = load i32, ptr %9, align 4
  %33 = add i32 %32, 8
  store i32 %33, ptr %9, align 4
  %34 = load ptr, ptr %7, align 8
  %35 = load i32, ptr @hf_raknet_timestamp, align 4
  %36 = load ptr, ptr %5, align 8
  %37 = load i32, ptr %9, align 4
  %38 = call ptr @proto_tree_add_item(ptr noundef %34, i32 noundef %35, ptr noundef %36, i32 noundef %37, i32 noundef 8, i32 noundef 0)
  %39 = load i32, ptr %9, align 4
  %40 = add i32 %39, 8
  store i32 %40, ptr %9, align 4
  %41 = load i32, ptr %9, align 4
  call void @llvm.lifetime.end.p0(i64 4, ptr %10) #6
  call void @llvm.lifetime.end.p0(i64 4, ptr %9) #6
  ret i32 %41
}