; Function Attrs: null_pointer_is_valid sspstrong uwtable
define internal noundef i32 @raknet_dissect_new_incoming_connection(ptr noundef %0, ptr noundef %1, ptr noundef %2, ptr readnone captures(none) %3) #0 {
  %5 = alloca i32, align 4
  call void @llvm.lifetime.start.p0(i64 4, ptr nonnull %5) #5
  store i32 1, ptr %5, align 4
  %6 = load i32, ptr @hf_raknet_server_address, align 4
  call fastcc void @raknet_dissect_system_address(ptr noundef %2, i32 noundef %6, ptr noundef %1, ptr noundef %0, ptr noundef nonnull %5)
  br label %7

7:                                                ; preds = %4, %7
  %.011 = phi i32 [ 0, %4 ], [ %9, %7 ]
  %8 = load i32, ptr @hf_raknet_internal_address, align 4
  call fastcc void @raknet_dissect_system_address(ptr noundef %2, i32 noundef %8, ptr noundef %1, ptr noundef %0, ptr noundef nonnull %5)
  %9 = add nuw nsw i32 %.011, 1
  %exitcond.not = icmp eq i32 %9, 10
  br i1 %exitcond.not, label %10, label %7, !llvm.loop !15

10:                                               ; preds = %7
  %11 = load i32, ptr @hf_raknet_timestamp, align 4
  %12 = load i32, ptr %5, align 4
  %13 = tail call ptr @proto_tree_add_item(ptr noundef %2, i32 noundef %11, ptr noundef %0, i32 noundef %12, i32 noundef 8, i32 noundef 0)
  %14 = add i32 %12, 8
  %15 = load i32, ptr @hf_raknet_timestamp, align 4
  %16 = tail call ptr @proto_tree_add_item(ptr noundef %2, i32 noundef %15, ptr noundef %0, i32 noundef %14, i32 noundef 8, i32 noundef 0)
  %17 = add i32 %12, 16
  call void @llvm.lifetime.end.p0(i64 4, ptr nonnull %5) #5
  ret i32 %17
}